; Function Attrs: mustprogress uwtable
define void @_ZNK2cv3reg16MapperGradAffine6getMapEv(ptr dead_on_unwind noalias writable writeonly sret(%"struct.cv::Ptr") align 8 captures(none) %0, ptr nonnull readnone align 8 captures(none) %1) unnamed_addr #4 align 2 personality ptr @__gxx_personality_v0 {
  %3 = tail call noalias noundef nonnull dereferenceable(56) ptr @_Znwm(i64 noundef 56) #20
  invoke void @_ZN2cv3reg9MapAffineC1Ev(ptr noundef nonnull align 8 dereferenceable(56) %3)
          to label %4 unwind label %23

4:                                                ; preds = %2
  store ptr %3, ptr %0, align 8, !tbaa !15
  %5 = getelementptr inbounds nuw i8, ptr %0, i64 8
  store ptr null, ptr %5, align 8, !tbaa !81
  %6 = invoke noalias noundef nonnull dereferenceable(24) ptr @_Znwm(i64 noundef 24) #20
          to label %_ZN2cv3PtrINS_3reg3MapEEC2INS1_9MapAffineEEEPT_.exit unwind label %7

7:                                                ; preds = %4
  %8 = landingpad { ptr, i32 }
          catch ptr null
  %9 = extractvalue { ptr, i32 } %8, 0
  %10 = tail call ptr @__cxa_begin_catch(ptr %9) #18
  %11 = load ptr, ptr %3, align 8, !tbaa !3
  %12 = getelementptr inbounds nuw i8, ptr %11, i64 8
  %13 = load ptr, ptr %12, align 8
  tail call void %13(ptr noundef nonnull align 8 dereferenceable(56) %3) #18
  invoke void @__cxa_rethrow() #21
          to label %19 unwind label %14

14:                                               ; preds = %7
  %15 = landingpad { ptr, i32 }
          cleanup
  invoke void @__cxa_end_catch()
          to label %common.resume unwind label %16

common.resume:                                    ; preds = %14, %23
  %common.resume.op = phi { ptr, i32 } [ %24, %23 ], [ %15, %14 ]
  resume { ptr, i32 } %common.resume.op

16:                                               ; preds = %14
  %17 = landingpad { ptr, i32 }
          catch ptr null
  %18 = extractvalue { ptr, i32 } %17, 0
  tail call void @__clang_call_terminate(ptr %18) #22
  unreachable

19:                                               ; preds = %7
  unreachable

_ZN2cv3PtrINS_3reg3MapEEC2INS1_9MapAffineEEEPT_.exit: ; preds = %4
  %20 = getelementptr inbounds nuw i8, ptr %6, i64 8
  store i32 1, ptr %20, align 8, !tbaa !82
  %21 = getelementptr inbounds nuw i8, ptr %6, i64 12
  store i32 1, ptr %21, align 4, !tbaa !84
  store ptr getelementptr inbounds nuw inrange(-16, 40) (i8, ptr @_ZTVSt15_Sp_counted_ptrIPN2cv3reg9MapAffineELN9__gnu_cxx12_Lock_policyE2EE, i64 16), ptr %6, align 8, !tbaa !3
  %22 = getelementptr inbounds nuw i8, ptr %6, i64 16
  store ptr %3, ptr %22, align 8, !tbaa !85
  store ptr %6, ptr %5, align 8, !tbaa !81
  ret void

23:                                               ; preds = %2
  %24 = landingpad { ptr, i32 }
          cleanup
  tail call void @_ZdlPv(ptr noundef nonnull %3) #19
  br label %common.resume
}